; Function Attrs: nounwind uwtable
define noalias noundef ptr @Ptr_AbcDeriveNtk(ptr noundef readonly captures(none) %0) local_unnamed_addr #0 {
Vec_PtrPush.exit37:
  %1 = tail call noalias dereferenceable_or_null(16) ptr @malloc(i64 noundef 16) #20
  %2 = getelementptr inbounds nuw i8, ptr %1, i64 4
  store i32 5, ptr %1, align 8, !tbaa !36
  %3 = tail call noalias dereferenceable_or_null(40) ptr @malloc(i64 noundef 40) #20
  %4 = getelementptr inbounds nuw i8, ptr %1, i64 8
  store ptr %3, ptr %4, align 8, !tbaa !32
  %5 = getelementptr i8, ptr %0, i64 8
  %.val = load ptr, ptr %5, align 8, !tbaa !42
  store ptr %.val, ptr %3, align 8, !tbaa !34
  %6 = tail call ptr @Ptr_AbcDeriveInputs(ptr noundef %0)
  %7 = getelementptr inbounds nuw i8, ptr %3, i64 8
  store ptr %6, ptr %7, align 8, !tbaa !34
  %8 = tail call ptr @Ptr_AbcDeriveOutputs(ptr noundef nonnull %0)
  %9 = getelementptr inbounds nuw i8, ptr %3, i64 16
  store ptr %8, ptr %9, align 8, !tbaa !34
  %calloc = tail call dereferenceable_or_null(16) ptr @calloc(i64 1, i64 16)
  %10 = getelementptr inbounds nuw i8, ptr %3, i64 24
  store ptr %calloc, ptr %10, align 8, !tbaa !34
  %11 = tail call ptr @Ptr_AbcDeriveBoxes(ptr noundef nonnull %0)
  store i32 5, ptr %2, align 4, !tbaa !35
  %12 = getelementptr inbounds nuw i8, ptr %3, i64 32
  store ptr %11, ptr %12, align 8, !tbaa !34
  ret ptr %1
}